; Function Attrs: mustprogress uwtable
define hidden void @_ZN7datalog4rule9set_proofER11ast_managerP3app(ptr nocapture noundef nonnull align 8 dereferenceable(80) %this, ptr noundef nonnull align 8 dereferenceable(976) %m, ptr noundef %p) local_unnamed_addr #3 align 2 {
entry:
  %tobool.not = icmp eq ptr %p, null
  br i1 %tobool.not, label %if.end, label %_ZN11ast_manager7inc_refEP3ast.exit

_ZN11ast_manager7inc_refEP3ast.exit:              ; preds = %entry
  %m_ref_count.i.i = getelementptr inbounds i8, ptr %p, i64 8
  %0 = load i32, ptr %m_ref_count.i.i, align 4
  %inc.i.i = add i32 %0, 1
  store i32 %inc.i.i, ptr %m_ref_count.i.i, align 4
  br label %if.end

if.end:                                           ; preds = %_ZN11ast_manager7inc_refEP3ast.exit, %entry
  %m_proof = getelementptr inbounds i8, ptr %this, i64 48
  %1 = load ptr, ptr %m_proof, align 8
  %tobool2.not = icmp eq ptr %1, null
  br i1 %tobool2.not, label %if.end5, label %if.then.i5

if.then.i5:                                       ; preds = %if.end
  %m_ref_count.i.i6 = getelementptr inbounds i8, ptr %1, i64 8
  %2 = load i32, ptr %m_ref_count.i.i6, align 4
  %dec.i.i = add i32 %2, -1
  store i32 %dec.i.i, ptr %m_ref_count.i.i6, align 4
  %cmp.i = icmp eq i32 %dec.i.i, 0
  br i1 %cmp.i, label %if.then2.i, label %if.end5

if.then2.i:                                       ; preds = %if.then.i5
  tail call void @_ZN11ast_manager11delete_nodeEP3ast(ptr noundef nonnull align 8 dereferenceable(976) %m, ptr noundef nonnull %1)
  br label %if.end5

if.end5:                                          ; preds = %if.then2.i, %if.then.i5, %if.end
  store ptr %p, ptr %m_proof, align 8
  ret void
}